target datalayout = "e-m:e-p270:32:32-p271:32:32-p272:64:64-i64:64-i128:128-f80:128-n8:16:32:64-S128"
target triple = "x86_64-pc-linux-gnu"

%struct.AVFilterContext = type { ptr, ptr, ptr, ptr, ptr, i32, ptr, ptr, i32, ptr, ptr, i32, i32, ptr, ptr, ptr, ptr, i32, ptr, i32, i32 }
%struct.StreamSelectContext = type { ptr, i32, ptr, ptr, i32, i32, ptr, ptr, %struct.FFFrameSync }
%struct.FFFrameSync = type { ptr, ptr, i32, %struct.AVRational, i64, ptr, ptr, i32, i32, i8, i8, ptr, i32, i32, i32, i32 }
%struct.AVRational = type { i32, i32 }

@.str.17 = private unnamed_addr constant [31 x i8] c"mapping definition is not set\0A\00", align 1
@.str.18 = private unnamed_addr constant [18 x i8] c"n=%d map=%p p=%p\0A\00", align 1
@.str.19 = private unnamed_addr constant [53 x i8] c"Unable to map more than the %d input pads available\0A\00", align 1
@.str.20 = private unnamed_addr constant [78 x i8] c"Input stream index %d doesn't exist (there is only %d input streams defined)\0A\00", align 1
@.str.21 = private unnamed_addr constant [41 x i8] c"Map input stream %d to output stream %d\0A\00", align 1
@.str.22 = private unnamed_addr constant [17 x i8] c"invalid mapping\0A\00", align 1
@.str.23 = private unnamed_addr constant [12 x i8] c"%d map set\0A\00", align 1

; Function Attrs: nounwind uwtable
define internal i32 @parse_mapping(ptr noundef %0, ptr noundef %1) #1 {
  %3 = alloca i32, align 4
  %4 = alloca ptr, align 8
  %5 = alloca ptr, align 8
  %6 = alloca ptr, align 8
  %7 = alloca ptr, align 8
  %8 = alloca i32, align 4
  %9 = alloca i32, align 4
  %10 = alloca ptr, align 8
  %11 = alloca i32, align 4
  store ptr %0, ptr %4, align 8, !tbaa !4
  store ptr %1, ptr %5, align 8, !tbaa !34
  call void @llvm.lifetime.start.p0(i64 8, ptr %6) #10
  %12 = load ptr, ptr %4, align 8, !tbaa !4
  %13 = getelementptr inbounds nuw %struct.AVFilterContext, ptr %12, i32 0, i32 9
  %14 = load ptr, ptr %13, align 8, !tbaa !9
  store ptr %14, ptr %6, align 8, !tbaa !22
  call void @llvm.lifetime.start.p0(i64 8, ptr %7) #10
  call void @llvm.lifetime.start.p0(i64 4, ptr %8) #10
  store i32 0, ptr %8, align 4, !tbaa !24
  %15 = load ptr, ptr %5, align 8, !tbaa !34
  %16 = icmp ne ptr %15, null
  br i1 %16, label %19, label %17

17:                                               ; preds = %2
  %18 = load ptr, ptr %4, align 8, !tbaa !4
  call void (ptr, i32, ptr, ...) @av_log(ptr noundef %18, i32 noundef 16, ptr noundef @.str.17)
  store i32 -22, ptr %3, align 4
  store i32 1, ptr %9, align 4
  br label %103

19:                                               ; preds = %2
  %20 = load ptr, ptr %6, align 8, !tbaa !22
  %21 = getelementptr inbounds nuw %struct.StreamSelectContext, ptr %20, i32 0, i32 1
  %22 = load i32, ptr %21, align 8, !tbaa !41
  %23 = sext i32 %22 to i64
  %24 = call noalias ptr @av_calloc(i64 noundef %23, i64 noundef 4)
  store ptr %24, ptr %7, align 8, !tbaa !50
  %25 = load ptr, ptr %7, align 8, !tbaa !50
  %26 = icmp ne ptr %25, null
  br i1 %26, label %28, label %27

27:                                               ; preds = %19
  store i32 -12, ptr %3, align 4
  store i32 1, ptr %9, align 4
  br label %103

28:                                               ; preds = %19
  br label %29

29:                                               ; preds = %83, %28
  br label %30

30:                                               ; preds = %29
  call void @llvm.lifetime.start.p0(i64 8, ptr %10) #10
  call void @llvm.lifetime.start.p0(i64 4, ptr %11) #10
  %31 = load ptr, ptr %5, align 8, !tbaa !34
  %32 = call i64 @strtol(ptr noundef %31, ptr noundef %10, i32 noundef 0) #10
  %33 = trunc i64 %32 to i32
  store i32 %33, ptr %11, align 4, !tbaa !24
  %34 = load ptr, ptr %4, align 8, !tbaa !4
  %35 = load i32, ptr %11, align 4, !tbaa !24
  %36 = load ptr, ptr %5, align 8, !tbaa !34
  %37 = load ptr, ptr %10, align 8, !tbaa !34
  call void (ptr, i32, ptr, ...) @av_log(ptr noundef %34, i32 noundef 48, ptr noundef @.str.18, i32 noundef %35, ptr noundef %36, ptr noundef %37)
  %38 = load ptr, ptr %5, align 8, !tbaa !34
  %39 = load ptr, ptr %10, align 8, !tbaa !34
  %40 = icmp eq ptr %38, %39
  br i1 %40, label %41, label %42

41:                                               ; preds = %30
  store i32 3, ptr %9, align 4
  br label %81

42:                                               ; preds = %30
  %43 = load ptr, ptr %10, align 8, !tbaa !34
  store ptr %43, ptr %5, align 8, !tbaa !34
  %44 = load i32, ptr %8, align 4, !tbaa !24
  %45 = load ptr, ptr %6, align 8, !tbaa !22
  %46 = getelementptr inbounds nuw %struct.StreamSelectContext, ptr %45, i32 0, i32 1
  %47 = load i32, ptr %46, align 8, !tbaa !41
  %48 = icmp sge i32 %44, %47
  br i1 %48, label %49, label %55

49:                                               ; preds = %42
  %50 = load ptr, ptr %4, align 8, !tbaa !4
  %51 = load ptr, ptr %6, align 8, !tbaa !22
  %52 = getelementptr inbounds nuw %struct.StreamSelectContext, ptr %51, i32 0, i32 1
  %53 = load i32, ptr %52, align 8, !tbaa !41
  call void (ptr, i32, ptr, ...) @av_log(ptr noundef %50, i32 noundef 16, ptr noundef @.str.19, i32 noundef %53)
  %54 = load ptr, ptr %7, align 8, !tbaa !50
  call void @av_free(ptr noundef %54)
  store i32 -22, ptr %3, align 4
  store i32 1, ptr %9, align 4
  br label %81

55:                                               ; preds = %42
  %56 = load i32, ptr %11, align 4, !tbaa !24
  %57 = icmp slt i32 %56, 0
  br i1 %57, label %64, label %58

58:                                               ; preds = %55
  %59 = load i32, ptr %11, align 4, !tbaa !24
  %60 = load ptr, ptr %4, align 8, !tbaa !4
  %61 = getelementptr inbounds nuw %struct.AVFilterContext, ptr %60, i32 0, i32 5
  %62 = load i32, ptr %61, align 8, !tbaa !43
  %63 = icmp uge i32 %59, %62
  br i1 %63, label %64, label %71

64:                                               ; preds = %58, %55
  %65 = load ptr, ptr %4, align 8, !tbaa !4
  %66 = load i32, ptr %11, align 4, !tbaa !24
  %67 = load ptr, ptr %6, align 8, !tbaa !22
  %68 = getelementptr inbounds nuw %struct.StreamSelectContext, ptr %67, i32 0, i32 1
  %69 = load i32, ptr %68, align 8, !tbaa !41
  call void (ptr, i32, ptr, ...) @av_log(ptr noundef %65, i32 noundef 16, ptr noundef @.str.20, i32 noundef %66, i32 noundef %69)
  %70 = load ptr, ptr %7, align 8, !tbaa !50
  call void @av_free(ptr noundef %70)
  store i32 -22, ptr %3, align 4
  store i32 1, ptr %9, align 4
  br label %81

71:                                               ; preds = %58
  %72 = load ptr, ptr %4, align 8, !tbaa !4
  %73 = load i32, ptr %11, align 4, !tbaa !24
  %74 = load i32, ptr %8, align 4, !tbaa !24
  call void (ptr, i32, ptr, ...) @av_log(ptr noundef %72, i32 noundef 40, ptr noundef @.str.21, i32 noundef %73, i32 noundef %74)
  %75 = load i32, ptr %11, align 4, !tbaa !24
  %76 = load ptr, ptr %7, align 8, !tbaa !50
  %77 = load i32, ptr %8, align 4, !tbaa !24
  %78 = add nsw i32 %77, 1
  store i32 %78, ptr %8, align 4, !tbaa !24
  %79 = sext i32 %77 to i64
  %80 = getelementptr inbounds i32, ptr %76, i64 %79
  store i32 %75, ptr %80, align 4, !tbaa !24
  store i32 0, ptr %9, align 4
  br label %81

81:                                               ; preds = %71, %64, %49, %41
  call void @llvm.lifetime.end.p0(i64 4, ptr %11) #10
  call void @llvm.lifetime.end.p0(i64 8, ptr %10) #10
  %82 = load i32, ptr %9, align 4
  switch i32 %82, label %103 [
    i32 0, label %83
    i32 3, label %84
  ]

83:                                               ; preds = %81
  br label %29

84:                                               ; preds = %81
  %85 = load i32, ptr %8, align 4, !tbaa !24
  %86 = icmp ne i32 %85, 0
  br i1 %86, label %90, label %87

87:                                               ; preds = %84
  %88 = load ptr, ptr %4, align 8, !tbaa !4
  call void (ptr, i32, ptr, ...) @av_log(ptr noundef %88, i32 noundef 16, ptr noundef @.str.22)
  %89 = load ptr, ptr %7, align 8, !tbaa !50
  call void @av_free(ptr noundef %89)
  store i32 -22, ptr %3, align 4
  store i32 1, ptr %9, align 4
  br label %103

90:                                               ; preds = %84
  %91 = load ptr, ptr %6, align 8, !tbaa !22
  %92 = getelementptr inbounds nuw %struct.StreamSelectContext, ptr %91, i32 0, i32 3
  call void @av_freep(ptr noundef %92)
  %93 = load ptr, ptr %7, align 8, !tbaa !50
  %94 = load ptr, ptr %6, align 8, !tbaa !22
  %95 = getelementptr inbounds nuw %struct.StreamSelectContext, ptr %94, i32 0, i32 3
  store ptr %93, ptr %95, align 8, !tbaa !51
  %96 = load i32, ptr %8, align 4, !tbaa !24
  %97 = load ptr, ptr %6, align 8, !tbaa !22
  %98 = getelementptr inbounds nuw %struct.StreamSelectContext, ptr %97, i32 0, i32 4
  store i32 %96, ptr %98, align 8, !tbaa !52
  %99 = load ptr, ptr %4, align 8, !tbaa !4
  %100 = load ptr, ptr %6, align 8, !tbaa !22
  %101 = getelementptr inbounds nuw %struct.StreamSelectContext, ptr %100, i32 0, i32 4
  %102 = load i32, ptr %101, align 8, !tbaa !52
  call void (ptr, i32, ptr, ...) @av_log(ptr noundef %99, i32 noundef 40, ptr noundef @.str.23, i32 noundef %102)
  store i32 0, ptr %3, align 4
  store i32 1, ptr %9, align 4
  br label %103

103:                                              ; preds = %90, %87, %81, %27, %17
  call void @llvm.lifetime.end.p0(i64 4, ptr %8) #10
  call void @llvm.lifetime.end.p0(i64 8, ptr %7) #10
  call void @llvm.lifetime.end.p0(i64 8, ptr %6) #10
  %104 = load i32, ptr %3, align 4
  ret i32 %104
}