; Function Attrs: nounwind uwtable
define internal fastcc range(i32 -22, 1) i32 @parse_mapping(ptr noundef %0, ptr noundef %1) unnamed_addr #1 {
  %3 = alloca ptr, align 8
  %4 = getelementptr inbounds nuw i8, ptr %0, i64 72
  %5 = load ptr, ptr %4, align 8, !tbaa !4
  %.not = icmp eq ptr %1, null
  br i1 %.not, label %6, label %7

6:                                                ; preds = %2
  tail call void (ptr, i32, ptr, ...) @av_log(ptr noundef nonnull %0, i32 noundef 16, ptr noundef nonnull @.str.17) #9
  br label %38

7:                                                ; preds = %2
  %8 = getelementptr inbounds nuw i8, ptr %5, i64 8
  %9 = load i32, ptr %8, align 8, !tbaa !35
  %10 = sext i32 %9 to i64
  %11 = tail call noalias ptr @av_calloc(i64 noundef %10, i64 noundef 4) #9
  %.not48 = icmp eq ptr %11, null
  br i1 %.not48, label %38, label %.preheader

.preheader:                                       ; preds = %7
  call void @llvm.lifetime.start.p0(i64 8, ptr nonnull %3) #9
  %12 = call i64 @strtol(ptr noundef nonnull %1, ptr noundef nonnull %3, i32 noundef 0) #9
  %13 = trunc i64 %12 to i32
  %14 = load ptr, ptr %3, align 8, !tbaa !34
  tail call void (ptr, i32, ptr, ...) @av_log(ptr noundef nonnull %0, i32 noundef 48, ptr noundef nonnull @.str.18, i32 noundef %13, ptr noundef nonnull %1, ptr noundef %14) #9
  %15 = icmp eq ptr %1, %14
  br i1 %15, label %._crit_edge.thread, label %.lr.ph

._crit_edge.thread:                               ; preds = %.preheader
  call void @llvm.lifetime.end.p0(i64 8, ptr nonnull %3) #9
  tail call void (ptr, i32, ptr, ...) @av_log(ptr noundef nonnull %0, i32 noundef 16, ptr noundef nonnull @.str.22) #9
  tail call void @av_free(ptr noundef nonnull %11) #9
  br label %38

.lr.ph:                                           ; preds = %.preheader
  %16 = getelementptr inbounds nuw i8, ptr %0, i64 40
  br label %17

17:                                               ; preds = %.lr.ph, %28
  %indvars.iv = phi i64 [ 0, %.lr.ph ], [ %indvars.iv.next, %28 ]
  %18 = phi ptr [ %14, %.lr.ph ], [ %33, %28 ]
  %19 = phi i32 [ %13, %.lr.ph ], [ %32, %28 ]
  %20 = load i32, ptr %8, align 8, !tbaa !35
  %21 = sext i32 %20 to i64
  %.not49 = icmp slt i64 %indvars.iv, %21
  br i1 %.not49, label %23, label %22

22:                                               ; preds = %17
  tail call void (ptr, i32, ptr, ...) @av_log(ptr noundef nonnull %0, i32 noundef 16, ptr noundef nonnull @.str.19, i32 noundef %20) #9
  br label %.thread

23:                                               ; preds = %17
  %24 = icmp slt i32 %19, 0
  br i1 %24, label %27, label %25

25:                                               ; preds = %23
  %26 = load i32, ptr %16, align 8, !tbaa !37
  %.not50 = icmp ugt i32 %26, %19
  br i1 %.not50, label %28, label %27

27:                                               ; preds = %25, %23
  tail call void (ptr, i32, ptr, ...) @av_log(ptr noundef nonnull %0, i32 noundef 16, ptr noundef nonnull @.str.20, i32 noundef %19, i32 noundef %20) #9
  br label %.thread

.thread:                                          ; preds = %22, %27
  tail call void @av_free(ptr noundef nonnull %11) #9
  call void @llvm.lifetime.end.p0(i64 8, ptr nonnull %3) #9
  br label %38

28:                                               ; preds = %25
  %29 = trunc nuw nsw i64 %indvars.iv to i32
  tail call void (ptr, i32, ptr, ...) @av_log(ptr noundef nonnull %0, i32 noundef 40, ptr noundef nonnull @.str.21, i32 noundef %19, i32 noundef %29) #9
  %indvars.iv.next = add nuw nsw i64 %indvars.iv, 1
  %30 = getelementptr inbounds nuw i32, ptr %11, i64 %indvars.iv
  store i32 %19, ptr %30, align 4, !tbaa !45
  call void @llvm.lifetime.end.p0(i64 8, ptr nonnull %3) #9
  call void @llvm.lifetime.start.p0(i64 8, ptr nonnull %3) #9
  %31 = call i64 @strtol(ptr noundef %18, ptr noundef nonnull %3, i32 noundef 0) #9
  %32 = trunc i64 %31 to i32
  %33 = load ptr, ptr %3, align 8, !tbaa !34
  tail call void (ptr, i32, ptr, ...) @av_log(ptr noundef nonnull %0, i32 noundef 48, ptr noundef nonnull @.str.18, i32 noundef %32, ptr noundef %18, ptr noundef %33) #9
  %34 = icmp eq ptr %18, %33
  br i1 %34, label %._crit_edge, label %17

._crit_edge:                                      ; preds = %28
  call void @llvm.lifetime.end.p0(i64 8, ptr nonnull %3) #9
  %35 = trunc nuw i64 %indvars.iv.next to i32
  %36 = getelementptr inbounds nuw i8, ptr %5, i64 24
  tail call void @av_freep(ptr noundef nonnull %36) #9
  store ptr %11, ptr %36, align 8, !tbaa !46
  %37 = getelementptr inbounds nuw i8, ptr %5, i64 32
  store i32 %35, ptr %37, align 8, !tbaa !47
  tail call void (ptr, i32, ptr, ...) @av_log(ptr noundef nonnull %0, i32 noundef 40, ptr noundef nonnull @.str.23, i32 noundef %35) #9
  br label %38

38:                                               ; preds = %.thread, %7, %._crit_edge, %._crit_edge.thread, %6
  %.0 = phi i32 [ 0, %._crit_edge ], [ -22, %._crit_edge.thread ], [ -22, %6 ], [ -12, %7 ], [ -22, %.thread ]
  ret i32 %.0
}